; Function Attrs: mustprogress nofree norecurse nosync nounwind willreturn memory(read, inaccessiblemem: none) uwtable
define noundef i64 @_ZN6casadi16SparsityInternal6rpruneExxdPv(i64 noundef %0, i64 noundef %1, double noundef %2, ptr nocapture noundef readonly %3) local_unnamed_addr #11 align 2 {
  %5 = load ptr, ptr %3, align 8
  %6 = getelementptr inbounds i8, ptr %5, i64 8
  %7 = load i64, ptr %6, align 8
  %.not = icmp sgt i64 %7, %0
  br i1 %.not, label %13, label %8

8:                                                ; preds = %4
  %9 = getelementptr inbounds i8, ptr %5, i64 16
  %10 = load i64, ptr %9, align 8
  %11 = icmp sgt i64 %10, %0
  %12 = zext i1 %11 to i64
  br label %13

13:                                               ; preds = %8, %4
  %14 = phi i64 [ 0, %4 ], [ %12, %8 ]
  ret i64 %14
}